(lp1
(lp2
I12
aI4
aI0
aI8
aa(lp3
I13
aI6
aI0
aI9
aa(lp4
I6
aI2
aI0
aI4
aa(lp5
I16
aI5
aI0
aI12
aa(lp6
I34
aI14
aI0
aI20
aa(lp7
I5
aI1
aI0
aI4
aa(lp8
I31
aI14
aI0
aI18
aa(lp9
I45
aI19
aI0
aI28
aa(lp10
I20
aI5
aI0
aI12
aa(lp11
I25
aI13
aI0
aI14
aa(lp12
I72
aI25
aI0
aI48
aa(lp13
I10
aI2
aI0
aI8
aa(lp14
I12
aI1
aI0
aI10
aa(lp15
I13
aI4
aI0
aI8
aa(lp16
I35
aI12
aI0
aI22
aa(lp17
I6
aI2
aI0
aI4
aa(lp18
I6
aI2
aI0
aI5
aa(lp19
I7
aI3
aI0
aI4
aa(lp20
I77
aI26
aI0
aI54
aa(lp21
I14
aI4
aI0
aI10
aa(lp22
I14
aI4
aI0
aI10
aa(lp23
I7
aI3
aI0
aI4
aa(lp24
I6
aI2
aI0
aI4
aa(lp25
I32
aI12
aI0
aI20
aa(lp26
I20
aI10
aI0
aI12
aa(lp27
I23
aI11
aI0
aI16
aa(lp28
I136
aI50
aI0
aI86
aa(lp29
I11
aI6
aI0
aI6
aa(lp30
I9
aI3
aI0
aI6
aa(lp31
I45
aI9
aI0
aI36
aa(lp32
I6
aI2
aI0
aI4
aa(lp33
I14
aI4
aI0
aI10
aa(lp34
I50
aI12
aI0
aI38
aa(lp35
I16
aI6
aI0
aI12
aa(lp36
I17
aI6
aI0
aI12
aa(lp37
I16
aI6
aI0
aI12
aa(lp38
I10
aI4
aI0
aI6
aa(lp39
I14
aI4
aI0
aI10
aa(lp40
I15
aI1
aI0
aI8
aa(lp41
I27
aI11
aI0
aI18
aa(lp42
I10
aI2
aI0
aI8
aa(lp43
I20
aI6
aI0
aI14
aa(lp44
I15
aI6
aI0
aI10
aa(lp45
I19
aI4
aI0
aI12
aa(lp46
I12
aI6
aI0
aI6
aa(lp47
I50
aI19
aI0
aI34
aa(lp48
I11
aI6
aI0
aI6
aa(lp49
I38
aI12
aI0
aI16
aa(lp50
I22
aI10
aI0
aI14
aa(lp51
I9
aI3
aI0
aI6
aa(lp52
I5
aI2
aI0
aI4
aa(lp53
I28
aI10
aI0
aI20
aa(lp54
I25
aI6
aI0
aI20
aa(lp55
I23
aI12
aI0
aI12
aa(lp56
I29
aI4
aI0
aI22
aa(lp57
I122
aI54
aI0
aI68
aa(lp58
I10
aI3
aI0
aI8
aa(lp59
I5
aI1
aI0
aI4
aa(lp60
I14
aI7
aI0
aI8
aa(lp61
I17
aI8
aI0
aI10
aa(lp62
I6
aI2
aI0
aI4
aa(lp63
I70
aI21
aI0
aI52
aa(lp64
I16
aI6
aI0
aI10
aa(lp65
I13
aI5
aI0
aI8
aa(lp66
I40
aI12
aI0
aI20
aa(lp67
I17
aI5
aI0
aI13
aa(lp68
I12
aI5
aI0
aI8
aa(lp69
I30
aI1
aI0
aI18
aa(lp70
I4
aI2
aI0
aI2
aa(lp71
I19
aI8
aI0
aI12
aa(lp72
I15
aI6
aI0
aI10
aa(lp73
I21
aI12
aI0
aI10
aa(lp74
I22
aI6
aI0
aI10
aa(lp75
I10
aI3
aI0
aI8
aa(lp76
I6
aI2
aI0
aI5
aa(lp77
I16
aI5
aI0
aI12
aa(lp78
I6
aI2
aI0
aI4
aa(lp79
I6
aI2
aI0
aI4
aa.